target datalayout = "e-m:e-p270:32:32-p271:32:32-p272:64:64-i64:64-i128:128-f80:128-n8:16:32:64-S128"
target triple = "x86_64-pc-linux-gnu"

%struct.JsonPath = type { i32, i32, [0 x i8] }
%struct.JsonPathItem = type { i32, i32, ptr, %union.anon }
%union.anon = type { %struct.anon.5 }
%struct.anon.5 = type { i32, ptr, i32, i32 }
%struct.JsonPathMutableContext = type { ptr, ptr, i32, i8, i8 }

; Function Attrs: nounwind uwtable
define dso_local void @jspInit(ptr noundef %0, ptr noundef %1) #0 {
  %3 = alloca ptr, align 8
  %4 = alloca ptr, align 8
  store ptr %0, ptr %3, align 8
  store ptr %1, ptr %4, align 8
  %5 = load ptr, ptr %3, align 8
  %6 = load ptr, ptr %4, align 8
  %7 = getelementptr inbounds nuw %struct.JsonPath, ptr %6, i32 0, i32 2
  %8 = getelementptr inbounds [0 x i8], ptr %7, i64 0, i64 0
  call void @jspInitByBuffer(ptr noundef %5, ptr noundef %8, i32 noundef 0)
  ret void
}

; Function Attrs: nounwind uwtable
define dso_local zeroext i1 @jspIsMutable(ptr noundef %0, ptr noundef %1, ptr noundef %2) #0 {
  %4 = alloca ptr, align 8
  %5 = alloca ptr, align 8
  %6 = alloca ptr, align 8
  %7 = alloca %struct.JsonPathMutableContext, align 8
  %8 = alloca %struct.JsonPathItem, align 8
  store ptr %0, ptr %4, align 8
  store ptr %1, ptr %5, align 8
  store ptr %2, ptr %6, align 8
  call void @llvm.lifetime.start.p0(i64 24, ptr %7) #9
  call void @llvm.lifetime.start.p0(i64 40, ptr %8) #9
  %9 = load ptr, ptr %5, align 8
  %10 = getelementptr inbounds nuw %struct.JsonPathMutableContext, ptr %7, i32 0, i32 0
  store ptr %9, ptr %10, align 8
  %11 = load ptr, ptr %6, align 8
  %12 = getelementptr inbounds nuw %struct.JsonPathMutableContext, ptr %7, i32 0, i32 1
  store ptr %11, ptr %12, align 8
  %13 = getelementptr inbounds nuw %struct.JsonPathMutableContext, ptr %7, i32 0, i32 2
  store i32 0, ptr %13, align 8
  %14 = load ptr, ptr %4, align 8
  %15 = getelementptr inbounds nuw %struct.JsonPath, ptr %14, i32 0, i32 1
  %16 = load i32, ptr %15, align 4
  %17 = and i32 %16, -2147483648
  %18 = icmp ne i32 %17, 0
  %19 = getelementptr inbounds nuw %struct.JsonPathMutableContext, ptr %7, i32 0, i32 3
  %20 = zext i1 %18 to i8
  store i8 %20, ptr %19, align 4
  %21 = getelementptr inbounds nuw %struct.JsonPathMutableContext, ptr %7, i32 0, i32 4
  store i8 0, ptr %21, align 1
  %22 = load ptr, ptr %4, align 8
  call void @jspInit(ptr noundef %8, ptr noundef %22)
  %23 = call i32 @jspIsMutableWalker(ptr noundef %8, ptr noundef %7)
  %24 = getelementptr inbounds nuw %struct.JsonPathMutableContext, ptr %7, i32 0, i32 4
  %25 = load i8, ptr %24, align 1, !range !4, !noundef !5
  %26 = trunc i8 %25 to i1
  call void @llvm.lifetime.end.p0(i64 40, ptr %8) #9
  call void @llvm.lifetime.end.p0(i64 24, ptr %7) #9
  ret i1 %26
}