; Function Attrs: nounwind uwtable
define dso_local zeroext i1 @jspIsMutable(ptr noundef %0, ptr noundef %1, ptr noundef %2) local_unnamed_addr #0 {
  %4 = alloca %struct.JsonPathMutableContext, align 8
  %5 = alloca %struct.JsonPathItem, align 8
  call void @llvm.lifetime.start.p0(i64 24, ptr nonnull %4) #13
  call void @llvm.lifetime.start.p0(i64 40, ptr nonnull %5) #13
  store ptr %1, ptr %4, align 8
  %6 = getelementptr inbounds nuw i8, ptr %4, i64 8
  store ptr %2, ptr %6, align 8
  %7 = getelementptr inbounds nuw i8, ptr %4, i64 16
  store i32 0, ptr %7, align 8
  %8 = getelementptr inbounds nuw i8, ptr %0, i64 4
  %9 = load i32, ptr %8, align 4
  %10 = getelementptr inbounds nuw i8, ptr %4, i64 20
  %.lobit = lshr i32 %9, 31
  %11 = trunc nuw nsw i32 %.lobit to i8
  store i8 %11, ptr %10, align 4
  %12 = getelementptr inbounds nuw i8, ptr %4, i64 21
  store i8 0, ptr %12, align 1
  %13 = getelementptr inbounds nuw i8, ptr %0, i64 8
  call void @jspInitByBuffer(ptr noundef nonnull %5, ptr noundef nonnull %13, i32 noundef 0)
  %14 = call fastcc i32 @jspIsMutableWalker(ptr noundef %5, ptr noundef %4)
  %15 = load i8, ptr %12, align 1, !range !4, !noundef !5
  %16 = trunc nuw i8 %15 to i1
  call void @llvm.lifetime.end.p0(i64 40, ptr nonnull %5) #13
  call void @llvm.lifetime.end.p0(i64 24, ptr nonnull %4) #13
  ret i1 %16
}